target datalayout = "e-m:e-p270:32:32-p271:32:32-p272:64:64-i64:64-i128:128-f80:128-n8:16:32:64-S128"
target triple = "x86_64-pc-linux-gnu"

@hf_GIAS_QueryLifeSpan_frequency_loop = internal global i32 0, align 4
@ett_giop_sequence = internal global i32 0, align 4
@ett_giop_union = internal global i32 0, align 4
@boundary = internal global i32 12, align 4
@.str.870 = private unnamed_addr constant [21 x i8] c"union GIAS_LifeEvent\00", align 1
@.str.871 = private unnamed_addr constant [38 x i8] c"sequence GIAS_QueryLifeSpan_frequency\00", align 1

; Function Attrs: null_pointer_is_valid sspstrong uwtable
define internal void @decode_GIAS_QueryLifeSpan_st(ptr noundef %0, ptr noundef %1, ptr noundef %2, ptr noundef %3, ptr noundef %4, ptr noundef %5, ptr noundef %6, i1 noundef zeroext %7) #0 {
  %9 = alloca ptr, align 8
  %10 = alloca ptr, align 8
  %11 = alloca ptr, align 8
  %12 = alloca ptr, align 8
  %13 = alloca ptr, align 8
  %14 = alloca ptr, align 8
  %15 = alloca ptr, align 8
  %16 = alloca i8, align 1
  %17 = alloca i32, align 4
  %18 = alloca i32, align 4
  %19 = alloca ptr, align 8
  %20 = alloca ptr, align 8
  %21 = alloca ptr, align 8
  %22 = alloca ptr, align 8
  store ptr %0, ptr %9, align 8
  store ptr %1, ptr %10, align 8
  store ptr %2, ptr %11, align 8
  store ptr %3, ptr %12, align 8
  store ptr %4, ptr %13, align 8
  store ptr %5, ptr %14, align 8
  store ptr %6, ptr %15, align 8
  %23 = zext i1 %7 to i8
  store i8 %23, ptr %16, align 1
  call void @llvm.lifetime.start.p0(i64 4, ptr %17) #6
  call void @llvm.lifetime.start.p0(i64 4, ptr %18) #6
  call void @llvm.lifetime.start.p0(i64 8, ptr %19) #6
  %24 = load ptr, ptr %11, align 8
  %25 = load ptr, ptr %9, align 8
  %26 = load ptr, ptr %13, align 8
  %27 = load i32, ptr %26, align 4
  %28 = load i32, ptr @ett_giop_union, align 4
  %29 = call ptr @proto_tree_add_subtree(ptr noundef %24, ptr noundef %25, i32 noundef %27, i32 noundef -1, i32 noundef %28, ptr noundef null, ptr noundef @.str.870)
  store ptr %29, ptr %19, align 8
  %30 = load ptr, ptr %9, align 8
  %31 = load ptr, ptr %10, align 8
  %32 = load ptr, ptr %19, align 8
  %33 = load ptr, ptr %13, align 8
  %34 = load ptr, ptr %14, align 8
  %35 = load ptr, ptr %15, align 8
  %36 = load i8, ptr %16, align 1, !range !6, !noundef !7
  %37 = trunc i8 %36 to i1
  call void @decode_GIAS_LifeEvent_un(ptr noundef %30, ptr noundef %31, ptr noundef %32, ptr noundef %33, ptr noundef %34, ptr noundef %35, i1 noundef zeroext %37)
  call void @llvm.lifetime.end.p0(i64 8, ptr %19) #6
  call void @llvm.lifetime.start.p0(i64 8, ptr %20) #6
  %38 = load ptr, ptr %11, align 8
  %39 = load ptr, ptr %9, align 8
  %40 = load ptr, ptr %13, align 8
  %41 = load i32, ptr %40, align 4
  %42 = load i32, ptr @ett_giop_union, align 4
  %43 = call ptr @proto_tree_add_subtree(ptr noundef %38, ptr noundef %39, i32 noundef %41, i32 noundef -1, i32 noundef %42, ptr noundef null, ptr noundef @.str.870)
  store ptr %43, ptr %20, align 8
  %44 = load ptr, ptr %9, align 8
  %45 = load ptr, ptr %10, align 8
  %46 = load ptr, ptr %20, align 8
  %47 = load ptr, ptr %13, align 8
  %48 = load ptr, ptr %14, align 8
  %49 = load ptr, ptr %15, align 8
  %50 = load i8, ptr %16, align 1, !range !6, !noundef !7
  %51 = trunc i8 %50 to i1
  call void @decode_GIAS_LifeEvent_un(ptr noundef %44, ptr noundef %45, ptr noundef %46, ptr noundef %47, ptr noundef %48, ptr noundef %49, i1 noundef zeroext %51)
  call void @llvm.lifetime.end.p0(i64 8, ptr %20) #6
  %52 = load ptr, ptr %9, align 8
  %53 = load ptr, ptr %13, align 8
  %54 = load i8, ptr %16, align 1, !range !6, !noundef !7
  %55 = trunc i8 %54 to i1
  %56 = load i32, ptr @boundary, align 4
  %57 = call i32 @get_CDR_ulong(ptr noundef %52, ptr noundef %53, i1 noundef zeroext %55, i32 noundef %56)
  store i32 %57, ptr %17, align 4
  %58 = load ptr, ptr %11, align 8
  %59 = load i32, ptr @hf_GIAS_QueryLifeSpan_frequency_loop, align 4
  %60 = load ptr, ptr %9, align 8
  %61 = load ptr, ptr %13, align 8
  %62 = load i32, ptr %61, align 4
  %63 = sub i32 %62, 4
  %64 = load i32, ptr %17, align 4
  %65 = call ptr @proto_tree_add_uint(ptr noundef %58, i32 noundef %59, ptr noundef %60, i32 noundef %63, i32 noundef 4, i32 noundef %64)
  call void @llvm.lifetime.start.p0(i64 8, ptr %21) #6
  %66 = load ptr, ptr %11, align 8
  store ptr %66, ptr %21, align 8
  %67 = load ptr, ptr %11, align 8
  %68 = load ptr, ptr %9, align 8
  %69 = load ptr, ptr %13, align 8
  %70 = load i32, ptr %69, align 4
  %71 = load i32, ptr @ett_giop_sequence, align 4
  %72 = call ptr @proto_tree_add_subtree(ptr noundef %67, ptr noundef %68, i32 noundef %70, i32 noundef -1, i32 noundef %71, ptr noundef null, ptr noundef @.str.871)
  store ptr %72, ptr %11, align 8
  store i32 0, ptr %18, align 4
  br label %73

73:                                               ; preds = %92, %8
  %74 = load i32, ptr %18, align 4
  %75 = load i32, ptr %17, align 4
  %76 = icmp ult i32 %74, %75
  br i1 %76, label %77, label %95

77:                                               ; preds = %73
  call void @llvm.lifetime.start.p0(i64 8, ptr %22) #6
  %78 = load ptr, ptr %11, align 8
  %79 = load ptr, ptr %9, align 8
  %80 = load ptr, ptr %13, align 8
  %81 = load i32, ptr %80, align 4
  %82 = load i32, ptr @ett_giop_union, align 4
  %83 = call ptr @proto_tree_add_subtree(ptr noundef %78, ptr noundef %79, i32 noundef %81, i32 noundef -1, i32 noundef %82, ptr noundef null, ptr noundef @.str.870)
  store ptr %83, ptr %22, align 8
  %84 = load ptr, ptr %9, align 8
  %85 = load ptr, ptr %10, align 8
  %86 = load ptr, ptr %22, align 8
  %87 = load ptr, ptr %13, align 8
  %88 = load ptr, ptr %14, align 8
  %89 = load ptr, ptr %15, align 8
  %90 = load i8, ptr %16, align 1, !range !6, !noundef !7
  %91 = trunc i8 %90 to i1
  call void @decode_GIAS_LifeEvent_un(ptr noundef %84, ptr noundef %85, ptr noundef %86, ptr noundef %87, ptr noundef %88, ptr noundef %89, i1 noundef zeroext %91)
  call void @llvm.lifetime.end.p0(i64 8, ptr %22) #6
  br label %92

92:                                               ; preds = %77
  %93 = load i32, ptr %18, align 4
  %94 = add i32 %93, 1
  store i32 %94, ptr %18, align 4
  br label %73, !llvm.loop !82

95:                                               ; preds = %73
  %96 = load ptr, ptr %21, align 8
  store ptr %96, ptr %11, align 8
  call void @llvm.lifetime.end.p0(i64 8, ptr %21) #6
  call void @llvm.lifetime.end.p0(i64 4, ptr %18) #6
  call void @llvm.lifetime.end.p0(i64 4, ptr %17) #6
  ret void
}