; Function Attrs: null_pointer_is_valid sspstrong uwtable
define internal fastcc void @decode_GIAS_QueryLifeSpan_st(ptr noundef %0, ptr noundef %1, ptr noundef %2, i1 noundef zeroext %3) unnamed_addr #0 {
  %5 = load i32, ptr %2, align 4
  %6 = load i32, ptr @ett_giop_union, align 4
  %7 = tail call ptr @proto_tree_add_subtree(ptr noundef %1, ptr noundef %0, i32 noundef %5, i32 noundef -1, i32 noundef %6, ptr noundef null, ptr noundef nonnull @.str.870)
  tail call fastcc void @decode_GIAS_LifeEvent_un(ptr noundef %0, ptr noundef %7, ptr noundef %2, i1 noundef zeroext %3)
  %8 = load i32, ptr %2, align 4
  %9 = load i32, ptr @ett_giop_union, align 4
  %10 = tail call ptr @proto_tree_add_subtree(ptr noundef %1, ptr noundef %0, i32 noundef %8, i32 noundef -1, i32 noundef %9, ptr noundef null, ptr noundef nonnull @.str.870)
  tail call fastcc void @decode_GIAS_LifeEvent_un(ptr noundef %0, ptr noundef %10, ptr noundef %2, i1 noundef zeroext %3)
  %11 = tail call i32 @get_CDR_ulong(ptr noundef %0, ptr noundef %2, i1 noundef zeroext %3, i32 noundef 12)
  %12 = load i32, ptr @hf_GIAS_QueryLifeSpan_frequency_loop, align 4
  %13 = load i32, ptr %2, align 4
  %14 = add i32 %13, -4
  %15 = tail call ptr @proto_tree_add_uint(ptr noundef %1, i32 noundef %12, ptr noundef %0, i32 noundef %14, i32 noundef 4, i32 noundef %11)
  %16 = load i32, ptr %2, align 4
  %17 = load i32, ptr @ett_giop_sequence, align 4
  %18 = tail call ptr @proto_tree_add_subtree(ptr noundef %1, ptr noundef %0, i32 noundef %16, i32 noundef -1, i32 noundef %17, ptr noundef null, ptr noundef nonnull @.str.871)
  %.not = icmp eq i32 %11, 0
  br i1 %.not, label %._crit_edge, label %.lr.ph

.lr.ph:                                           ; preds = %4, %.lr.ph
  %.01 = phi i32 [ %22, %.lr.ph ], [ 0, %4 ]
  %19 = load i32, ptr %2, align 4
  %20 = load i32, ptr @ett_giop_union, align 4
  %21 = tail call ptr @proto_tree_add_subtree(ptr noundef %18, ptr noundef %0, i32 noundef %19, i32 noundef -1, i32 noundef %20, ptr noundef null, ptr noundef nonnull @.str.870)
  tail call fastcc void @decode_GIAS_LifeEvent_un(ptr noundef %0, ptr noundef %21, ptr noundef %2, i1 noundef zeroext %3)
  %22 = add nuw i32 %.01, 1
  %exitcond.not = icmp eq i32 %22, %11
  br i1 %exitcond.not, label %._crit_edge, label %.lr.ph, !llvm.loop !86

._crit_edge:                                      ; preds = %.lr.ph, %4
  ret void
}